; Function Attrs: mustprogress uwtable
define hidden void @_ZN4lean8cse_coreERKNS_16elab_environmentERKNS_4exprEb(ptr dead_on_unwind noalias writable sret(%"class.lean::expr") align 8 %0, ptr noundef nonnull readonly align 8 captures(none) dereferenceable(8) %1, ptr noundef nonnull align 8 dereferenceable(8) %2, i1 noundef zeroext %3) local_unnamed_addr #0 personality ptr @__gxx_personality_v0 {
  %5 = alloca %"class.lean::cse_fn", align 8
  call void @llvm.lifetime.start.p0(i64 112, ptr nonnull %5) #17
  %6 = load ptr, ptr %1, align 8, !tbaa !3
  store ptr %6, ptr %5, align 8, !tbaa !3
  %7 = ptrtoint ptr %6 to i64
  %8 = and i64 %7, 1
  %.not.i.i.i.i = icmp eq i64 %8, 0
  br i1 %.not.i.i.i.i, label %9, label %_ZN4lean16elab_environmentC2ERKS0_.exit.i

9:                                                ; preds = %4
  %.val.i.i.i.i.i = load i32, ptr %6, align 4, !tbaa !8
  %10 = icmp sgt i32 %.val.i.i.i.i.i, 0
  br i1 %10, label %11, label %13, !prof !11

11:                                               ; preds = %9
  %12 = add nuw nsw i32 %.val.i.i.i.i.i, 1
  store i32 %12, ptr %6, align 4, !tbaa !8
  br label %_ZN4lean16elab_environmentC2ERKS0_.exit.i

13:                                               ; preds = %9
  %.not.i.i.i.i.i = icmp eq i32 %.val.i.i.i.i.i, 0
  br i1 %.not.i.i.i.i.i, label %_ZN4lean16elab_environmentC2ERKS0_.exit.i, label %14

14:                                               ; preds = %13
  tail call void @lean_inc_ref_cold(ptr noundef nonnull %6)
  br label %_ZN4lean16elab_environmentC2ERKS0_.exit.i

_ZN4lean16elab_environmentC2ERKS0_.exit.i:        ; preds = %14, %13, %11, %4
  %15 = getelementptr inbounds nuw i8, ptr %5, i64 8
  %16 = load ptr, ptr @_ZN4leanL11g_cse_freshE, align 8, !tbaa !12
  invoke void @_ZN4lean14name_generatorC1ERKNS_4nameE(ptr noundef nonnull align 8 dereferenceable(12) %15, ptr noundef nonnull align 8 dereferenceable(8) %16)
          to label %_ZN4lean6cse_fnC2ERKNS_16elab_environmentEb.exit unwind label %17

common.resume:                                    ; preds = %27, %17
  %common.resume.op = phi { ptr, i32 } [ %18, %17 ], [ %28, %27 ]
  resume { ptr, i32 } %common.resume.op

17:                                               ; preds = %_ZN4lean16elab_environmentC2ERKS0_.exit.i
  %18 = landingpad { ptr, i32 }
          cleanup
  call void @_ZN4lean10object_refD2Ev(ptr noundef nonnull align 8 dereferenceable(112) %5) #17
  br label %common.resume

_ZN4lean6cse_fnC2ERKNS_16elab_environmentEb.exit: ; preds = %_ZN4lean16elab_environmentC2ERKS0_.exit.i
  %19 = zext i1 %3 to i8
  %20 = getelementptr inbounds nuw i8, ptr %5, i64 24
  store i8 %19, ptr %20, align 8, !tbaa !14
  %21 = getelementptr inbounds nuw i8, ptr %5, i64 32
  %22 = getelementptr inbounds nuw i8, ptr %5, i64 80
  store ptr %22, ptr %21, align 8, !tbaa !34
  %23 = getelementptr inbounds nuw i8, ptr %5, i64 40
  store i64 1, ptr %23, align 8, !tbaa !35
  %24 = getelementptr inbounds nuw i8, ptr %5, i64 48
  %25 = getelementptr inbounds nuw i8, ptr %5, i64 64
  call void @llvm.memset.p0.i64(ptr noundef nonnull align 8 dereferenceable(16) %24, i8 0, i64 16, i1 false)
  store float 1.000000e+00, ptr %25, align 8, !tbaa !36
  %26 = getelementptr inbounds nuw i8, ptr %5, i64 72
  call void @llvm.memset.p0.i64(ptr noundef nonnull align 8 dereferenceable(40) %26, i8 0, i64 40, i1 false)
  invoke void @_ZN4lean6cse_fn5visitERKNS_4exprE(ptr dead_on_unwind writable sret(%"class.lean::expr") align 8 %0, ptr noundef nonnull align 8 dereferenceable(112) %5, ptr noundef nonnull align 8 dereferenceable(8) %2)
          to label %_ZN4lean6cse_fnclERKNS_4exprE.exit unwind label %27

_ZN4lean6cse_fnclERKNS_4exprE.exit:               ; preds = %_ZN4lean6cse_fnC2ERKNS_16elab_environmentEb.exit
  call void @_ZN4lean6cse_fnD2Ev(ptr noundef nonnull align 8 dereferenceable(112) %5) #17
  call void @llvm.lifetime.end.p0(i64 112, ptr nonnull %5) #17
  ret void

27:                                               ; preds = %_ZN4lean6cse_fnC2ERKNS_16elab_environmentEb.exit
  %28 = landingpad { ptr, i32 }
          cleanup
  call void @_ZN4lean6cse_fnD2Ev(ptr noundef nonnull align 8 dereferenceable(112) %5) #17
  call void @llvm.lifetime.end.p0(i64 112, ptr nonnull %5) #17
  br label %common.resume
}